; Function Attrs: cold inlinehint mustprogress noreturn uwtable
define internal fastcc void @"_ZZN17absl_log_internal35CHECKTest_TestSecondaryFailure_Test8TestBodyEvENK3$_0clEv"() unnamed_addr #17 align 2 personality ptr @__gxx_personality_v0 {
  %1 = alloca %"class.absl::log_internal::LogMessageFatal", align 8
  call void @llvm.lifetime.start.p0(i64 16, ptr nonnull %1) #29
  call void @_ZN4absl12log_internal15LogMessageFatalC1EPKciS3_(ptr noundef nonnull align 8 dereferenceable(16) %1, ptr noundef nonnull @.str.4, i32 noundef 215, ptr noundef nonnull @.str.7) #31
  %2 = invoke noundef nonnull align 8 dereferenceable(16) ptr @_ZN4absl12log_internal10LogMessagelsILi10EEERS1_RAT__Kc(ptr noundef nonnull align 8 dereferenceable(16) %1, ptr noundef nonnull align 1 dereferenceable(10) @.str.87)
          to label %3 unwind label %4

3:                                                ; preds = %0
  call void @_ZN4absl12log_internal15LogMessageFatalD1Ev(ptr noundef nonnull align 8 dereferenceable(16) %1) #30
  unreachable

4:                                                ; preds = %0
  %5 = landingpad { ptr, i32 }
          cleanup
  call void @_ZN4absl12log_internal15LogMessageFatalD1Ev(ptr noundef nonnull align 8 dereferenceable(16) %1) #30
  unreachable
}